; Function Attrs: mustprogress uwtable
define hidden void @_ZN2lp15lar_core_solver5solveEv(ptr noundef nonnull align 8 dereferenceable(632) %this) local_unnamed_addr #3 align 2 {
entry:
  %m_r_solver = getelementptr inbounds i8, ptr %this, i64 360
  %m_inf_heap.i = getelementptr inbounds i8, ptr %this, i64 384
  %0 = load ptr, ptr %m_inf_heap.i, align 8
  %cmp.i.i.i = icmp eq ptr %0, null
  br i1 %cmp.i.i.i, label %if.end, label %_ZNK2lp19lp_core_solver_baseI8rationalNS_12numeric_pairIS1_EEE21current_x_is_feasibleEv.exit

_ZNK2lp19lp_core_solver_baseI8rationalNS_12numeric_pairIS1_EEE21current_x_is_feasibleEv.exit: ; preds = %entry
  %arrayidx.i.i.i = getelementptr inbounds i8, ptr %0, i64 -4
  %1 = load i32, ptr %arrayidx.i.i.i, align 4
  %2 = icmp eq i32 %1, 1
  br i1 %2, label %land.lhs.true, label %if.end

land.lhs.true:                                    ; preds = %_ZNK2lp19lp_core_solver_baseI8rationalNS_12numeric_pairIS1_EEE21current_x_is_feasibleEv.exit
  %m_look_for_feasible_solution_only = getelementptr inbounds i8, ptr %this, i64 544
  %3 = load i8, ptr %m_look_for_feasible_solution_only, align 8
  %4 = and i8 %3, 1
  %tobool.not = icmp eq i8 %4, 0
  br i1 %tobool.not, label %if.end, label %if.then

if.then:                                          ; preds = %land.lhs.true
  %m_status.i = getelementptr inbounds i8, ptr %this, i64 376
  store i32 6, ptr %m_status.i, align 8
  br label %sw.epilog

if.end:                                           ; preds = %entry, %land.lhs.true, %_ZNK2lp19lp_core_solver_baseI8rationalNS_12numeric_pairIS1_EEE21current_x_is_feasibleEv.exit
  %m_settings = getelementptr inbounds i8, ptr %this, i64 464
  %5 = load ptr, ptr %m_settings, align 8
  %m_need_to_solve_inf = getelementptr inbounds i8, ptr %5, i64 84
  %6 = load i32, ptr %m_need_to_solve_inf, align 4
  %inc = add i32 %6, 1
  store i32 %inc, ptr %m_need_to_solve_inf, align 4
  %m_look_for_feasible_solution_only7 = getelementptr inbounds i8, ptr %this, i64 544
  %7 = load i8, ptr %m_look_for_feasible_solution_only7, align 8
  %8 = and i8 %7, 1
  %tobool8.not = icmp eq i8 %8, 0
  br i1 %tobool8.not, label %if.else, label %if.then9

if.then9:                                         ; preds = %if.end
  tail call void @_ZN2lp21lp_primal_core_solverI8rationalNS_12numeric_pairIS1_EEE22find_feasible_solutionEv(ptr noundef nonnull align 8 dereferenceable(272) %m_r_solver)
  br label %if.end13

if.else:                                          ; preds = %if.end
  %call12 = tail call noundef i32 @_ZN2lp21lp_primal_core_solverI8rationalNS_12numeric_pairIS1_EEE5solveEv(ptr noundef nonnull align 8 dereferenceable(272) %m_r_solver)
  br label %if.end13

if.end13:                                         ; preds = %if.else, %if.then9
  %m_status.i1 = getelementptr inbounds i8, ptr %this, i64 376
  %9 = load i32, ptr %m_status.i1, align 8
  switch i32 %9, label %sw.default [
    i32 1, label %sw.bb
    i32 11, label %sw.epilog
    i32 3, label %sw.epilog
  ]

sw.bb:                                            ; preds = %if.end13
  tail call void @_ZN2lp15lar_core_solver28fill_not_improvable_zero_sumEv(ptr noundef nonnull align 8 dereferenceable(632) %this)
  br label %sw.epilog

sw.default:                                       ; preds = %if.end13
  store i32 6, ptr %m_status.i1, align 8
  br label %sw.epilog

sw.epilog:                                        ; preds = %if.end13, %if.end13, %sw.default, %sw.bb, %if.then
  ret void
}